target datalayout = "e-m:e-p270:32:32-p271:32:32-p272:64:64-i64:64-i128:128-f80:128-n8:16:32:64-S128"
target triple = "x86_64-pc-linux-gnu"

%struct.dlist_head = type { %struct.dlist_node }
%struct.dlist_node = type { ptr, ptr }
%struct.LWLock = type { i16, %struct.pg_atomic_uint32, %struct.proclist_head }
%struct.pg_atomic_uint32 = type { i32 }
%struct.proclist_head = type { i32, i32 }
%struct.PGPROC = type { %struct.dlist_node, ptr, ptr, i32, %struct.Latch, i32, i32, i32, i32, %struct.anon, i32, i32, i32, i8, i8, i8, i8, %struct.proclist_node, %struct.proclist_node, ptr, ptr, i32, i32, %struct.pg_atomic_uint64, i32, i8, i64, i32, %struct.dlist_node, [16 x %struct.dlist_head], %struct.XidCacheStatus, %struct.XidCache, i8, %struct.pg_atomic_uint32, i32, i32, i8, %struct.pg_atomic_uint32, i32, i32, i64, i64, %struct.LWLock, ptr, ptr, i8, i32, ptr, %struct.dlist_head, %struct.dlist_node }
%struct.Latch = type { i32, i32, i8, i32 }
%struct.anon = type { i32, i32 }
%struct.proclist_node = type { i32, i32 }
%struct.pg_atomic_uint64 = type { i64 }
%struct.XidCacheStatus = type { i8, i8 }
%struct.XidCache = type { [64 x i32] }

@FastPathLockGroupsPerBackend = dso_local global i32 0, align 4
@FastPathLocalUseCounts = internal global [1024 x i32] zeroinitializer, align 16
@MyProc = external global ptr, align 8

; Function Attrs: nounwind uwtable
define internal zeroext i1 @FastPathUnGrantRelationLock(i32 noundef %0, i32 noundef %1) #0 {
  %3 = alloca i32, align 4
  %4 = alloca i32, align 4
  %5 = alloca i32, align 4
  %6 = alloca i8, align 1
  %7 = alloca i32, align 4
  %8 = alloca i32, align 4
  store i32 %0, ptr %3, align 4
  store i32 %1, ptr %4, align 4
  call void @llvm.lifetime.start.p0(i64 4, ptr %5) #9
  call void @llvm.lifetime.start.p0(i64 1, ptr %6) #9
  store i8 0, ptr %6, align 1
  call void @llvm.lifetime.start.p0(i64 4, ptr %7) #9
  %9 = load i32, ptr %3, align 4
  %10 = zext i32 %9 to i64
  %11 = mul i64 %10, 49157
  %12 = load i32, ptr @FastPathLockGroupsPerBackend, align 4
  %13 = sext i32 %12 to i64
  %14 = urem i64 %11, %13
  %15 = trunc i64 %14 to i32
  store i32 %15, ptr %7, align 4
  %16 = load i32, ptr %7, align 4
  %17 = zext i32 %16 to i64
  %18 = getelementptr inbounds nuw [1024 x i32], ptr @FastPathLocalUseCounts, i64 0, i64 %17
  store i32 0, ptr %18, align 4
  store i32 0, ptr %5, align 4
  br label %19

19:                                               ; preds = %97, %2
  %20 = load i32, ptr %5, align 4
  %21 = icmp ult i32 %20, 16
  br i1 %21, label %22, label %100

22:                                               ; preds = %19
  call void @llvm.lifetime.start.p0(i64 4, ptr %8) #9
  %23 = load i32, ptr %7, align 4
  %24 = mul i32 %23, 16
  %25 = load i32, ptr %5, align 4
  %26 = add i32 %24, %25
  store i32 %26, ptr %8, align 4
  %27 = load ptr, ptr @MyProc, align 8
  %28 = getelementptr inbounds nuw %struct.PGPROC, ptr %27, i32 0, i32 44
  %29 = load ptr, ptr %28, align 8
  %30 = load i32, ptr %8, align 4
  %31 = zext i32 %30 to i64
  %32 = getelementptr inbounds nuw i32, ptr %29, i64 %31
  %33 = load i32, ptr %32, align 4
  %34 = load i32, ptr %3, align 4
  %35 = icmp eq i32 %33, %34
  br i1 %35, label %36, label %74

36:                                               ; preds = %22
  %37 = load ptr, ptr @MyProc, align 8
  %38 = getelementptr inbounds nuw %struct.PGPROC, ptr %37, i32 0, i32 43
  %39 = load ptr, ptr %38, align 8
  %40 = load i32, ptr %8, align 4
  %41 = udiv i32 %40, 16
  %42 = zext i32 %41 to i64
  %43 = getelementptr inbounds nuw i64, ptr %39, i64 %42
  %44 = load i64, ptr %43, align 8
  %45 = load i32, ptr %4, align 4
  %46 = sub i32 %45, 1
  %47 = load i32, ptr %8, align 4
  %48 = urem i32 %47, 16
  %49 = mul i32 3, %48
  %50 = add i32 %46, %49
  %51 = zext i32 %50 to i64
  %52 = shl i64 1, %51
  %53 = and i64 %44, %52
  %54 = icmp ne i64 %53, 0
  br i1 %54, label %55, label %74

55:                                               ; preds = %36
  %56 = load i32, ptr %4, align 4
  %57 = sub i32 %56, 1
  %58 = load i32, ptr %8, align 4
  %59 = urem i32 %58, 16
  %60 = mul i32 3, %59
  %61 = add i32 %57, %60
  %62 = zext i32 %61 to i64
  %63 = shl i64 1, %62
  %64 = xor i64 %63, -1
  %65 = load ptr, ptr @MyProc, align 8
  %66 = getelementptr inbounds nuw %struct.PGPROC, ptr %65, i32 0, i32 43
  %67 = load ptr, ptr %66, align 8
  %68 = load i32, ptr %8, align 4
  %69 = udiv i32 %68, 16
  %70 = zext i32 %69 to i64
  %71 = getelementptr inbounds nuw i64, ptr %67, i64 %70
  %72 = load i64, ptr %71, align 8
  %73 = and i64 %72, %64
  store i64 %73, ptr %71, align 8
  store i8 1, ptr %6, align 1
  br label %74

74:                                               ; preds = %55, %36, %22
  %75 = load ptr, ptr @MyProc, align 8
  %76 = getelementptr inbounds nuw %struct.PGPROC, ptr %75, i32 0, i32 43
  %77 = load ptr, ptr %76, align 8
  %78 = load i32, ptr %8, align 4
  %79 = udiv i32 %78, 16
  %80 = zext i32 %79 to i64
  %81 = getelementptr inbounds nuw i64, ptr %77, i64 %80
  %82 = load i64, ptr %81, align 8
  %83 = load i32, ptr %8, align 4
  %84 = urem i32 %83, 16
  %85 = mul i32 3, %84
  %86 = zext i32 %85 to i64
  %87 = lshr i64 %82, %86
  %88 = and i64 %87, 7
  %89 = icmp ne i64 %88, 0
  br i1 %89, label %90, label %96

90:                                               ; preds = %74
  %91 = load i32, ptr %7, align 4
  %92 = zext i32 %91 to i64
  %93 = getelementptr inbounds nuw [1024 x i32], ptr @FastPathLocalUseCounts, i64 0, i64 %92
  %94 = load i32, ptr %93, align 4
  %95 = add i32 %94, 1
  store i32 %95, ptr %93, align 4
  br label %96

96:                                               ; preds = %90, %74
  call void @llvm.lifetime.end.p0(i64 4, ptr %8) #9
  br label %97

97:                                               ; preds = %96
  %98 = load i32, ptr %5, align 4
  %99 = add i32 %98, 1
  store i32 %99, ptr %5, align 4
  br label %19, !llvm.loop !29

100:                                              ; preds = %19
  %101 = load i8, ptr %6, align 1, !range !4, !noundef !5
  %102 = trunc i8 %101 to i1
  call void @llvm.lifetime.end.p0(i64 4, ptr %7) #9
  call void @llvm.lifetime.end.p0(i64 1, ptr %6) #9
  call void @llvm.lifetime.end.p0(i64 4, ptr %5) #9
  ret i1 %102
}