; Function Attrs: nofree norecurse nosync nounwind memory(readwrite, inaccessiblemem: none) uwtable
define internal fastcc zeroext i1 @FastPathUnGrantRelationLock(i32 noundef %0, i32 noundef range(i32 -2147483648, 4) %1) unnamed_addr #8 {
  %3 = zext i32 %0 to i64
  %4 = mul nuw nsw i64 %3, 49157
  %5 = load i32, ptr @FastPathLockGroupsPerBackend, align 4
  %6 = sext i32 %5 to i64
  %7 = urem i64 %4, %6
  %8 = and i64 %7, 4294967295
  %9 = getelementptr inbounds nuw [1024 x i32], ptr @FastPathLocalUseCounts, i64 0, i64 %8
  store i32 0, ptr %9, align 4
  %10 = shl nuw nsw i64 %7, 4
  %11 = and i64 %7, 268435455
  %12 = add i32 %1, -1
  %13 = and i64 %10, 4294967280
  %.pre = load ptr, ptr @MyProc, align 8
  br label %14

14:                                               ; preds = %2, %47
  %15 = phi ptr [ %.pre, %2 ], [ %37, %47 ]
  %indvars.iv = phi i64 [ 0, %2 ], [ %indvars.iv.next, %47 ]
  %.01820 = phi i1 [ false, %2 ], [ %.1, %47 ]
  %16 = getelementptr inbounds nuw i8, ptr %15, i64 776
  %17 = load ptr, ptr %16, align 8
  %18 = getelementptr inbounds nuw i32, ptr %17, i64 %indvars.iv
  %19 = getelementptr inbounds nuw i32, ptr %18, i64 %13
  %20 = load i32, ptr %19, align 4
  %21 = icmp eq i32 %20, %0
  br i1 %21, label %22, label %._crit_edge

._crit_edge:                                      ; preds = %14
  %.pre23 = mul nuw nsw i64 %indvars.iv, 3
  br label %36

22:                                               ; preds = %14
  %23 = getelementptr inbounds nuw i8, ptr %15, i64 768
  %24 = load ptr, ptr %23, align 8
  %25 = getelementptr inbounds nuw i64, ptr %24, i64 %11
  %26 = load i64, ptr %25, align 8
  %27 = mul nuw nsw i64 %indvars.iv, 3
  %28 = trunc nuw nsw i64 %27 to i32
  %29 = add i32 %12, %28
  %30 = zext nneg i32 %29 to i64
  %31 = shl nuw i64 1, %30
  %32 = and i64 %26, %31
  %.not = icmp eq i64 %32, 0
  br i1 %.not, label %36, label %33

33:                                               ; preds = %22
  %34 = xor i64 %31, -1
  %35 = and i64 %26, %34
  store i64 %35, ptr %25, align 8
  %.pre22 = load ptr, ptr @MyProc, align 8
  br label %36

36:                                               ; preds = %._crit_edge, %33, %22
  %.pre-phi = phi i64 [ %.pre23, %._crit_edge ], [ %27, %33 ], [ %27, %22 ]
  %37 = phi ptr [ %15, %._crit_edge ], [ %.pre22, %33 ], [ %15, %22 ]
  %.1 = phi i1 [ %.01820, %._crit_edge ], [ true, %33 ], [ %.01820, %22 ]
  %38 = getelementptr inbounds nuw i8, ptr %37, i64 768
  %39 = load ptr, ptr %38, align 8
  %40 = getelementptr inbounds nuw i64, ptr %39, i64 %11
  %41 = load i64, ptr %40, align 8
  %42 = shl nuw nsw i64 7, %.pre-phi
  %43 = and i64 %41, %42
  %.not19 = icmp eq i64 %43, 0
  br i1 %.not19, label %47, label %44

44:                                               ; preds = %36
  %45 = load i32, ptr %9, align 4
  %46 = add i32 %45, 1
  store i32 %46, ptr %9, align 4
  br label %47

47:                                               ; preds = %44, %36
  %indvars.iv.next = add nuw nsw i64 %indvars.iv, 1
  %exitcond.not = icmp eq i64 %indvars.iv.next, 16
  br i1 %exitcond.not, label %48, label %14, !llvm.loop !23

48:                                               ; preds = %47
  ret i1 %.1
}